target datalayout = "e-m:e-p270:32:32-p271:32:32-p272:64:64-i64:64-i128:128-f80:128-n8:16:32:64-S128"
target triple = "x86_64-pc-linux-gnu"

@.str.13 = private unnamed_addr constant [27 x i8] c"Unsupported YUV colorspace\00", align 1

; Function Attrs: nounwind uwtable
define internal zeroext i1 @GetYUVConversionType(i32 noundef %0, ptr noundef %1) #0 {
  %3 = alloca i1, align 1
  %4 = alloca i32, align 4
  %5 = alloca ptr, align 8
  store i32 %0, ptr %4, align 4
  store ptr %1, ptr %5, align 8
  %6 = load i32, ptr %4, align 4
  %7 = and i32 %6, 31
  %8 = icmp eq i32 %7, 6
  br i1 %8, label %13, label %9

9:                                                ; preds = %2
  %10 = load i32, ptr %4, align 4
  %11 = and i32 %10, 31
  %12 = icmp eq i32 %11, 5
  br i1 %12, label %13, label %23

13:                                               ; preds = %9, %2
  %14 = load i32, ptr %4, align 4
  %15 = lshr i32 %14, 24
  %16 = and i32 %15, 15
  %17 = icmp ne i32 %16, 2
  br i1 %17, label %18, label %20

18:                                               ; preds = %13
  %19 = load ptr, ptr %5, align 8
  store i32 1, ptr %19, align 4
  br label %22

20:                                               ; preds = %13
  %21 = load ptr, ptr %5, align 8
  store i32 0, ptr %21, align 4
  br label %22

22:                                               ; preds = %20, %18
  store i1 true, ptr %3, align 1
  br label %51

23:                                               ; preds = %9
  %24 = load i32, ptr %4, align 4
  %25 = and i32 %24, 31
  %26 = icmp eq i32 %25, 1
  br i1 %26, label %27, label %37

27:                                               ; preds = %23
  %28 = load i32, ptr %4, align 4
  %29 = lshr i32 %28, 24
  %30 = and i32 %29, 15
  %31 = icmp ne i32 %30, 2
  br i1 %31, label %32, label %34

32:                                               ; preds = %27
  %33 = load ptr, ptr %5, align 8
  store i32 3, ptr %33, align 4
  br label %36

34:                                               ; preds = %27
  %35 = load ptr, ptr %5, align 8
  store i32 2, ptr %35, align 4
  br label %36

36:                                               ; preds = %34, %32
  store i1 true, ptr %3, align 1
  br label %51

37:                                               ; preds = %23
  %38 = load i32, ptr %4, align 4
  %39 = and i32 %38, 31
  %40 = icmp eq i32 %39, 9
  br i1 %40, label %41, label %49

41:                                               ; preds = %37
  %42 = load i32, ptr %4, align 4
  %43 = lshr i32 %42, 24
  %44 = and i32 %43, 15
  %45 = icmp eq i32 %44, 2
  br i1 %45, label %46, label %48

46:                                               ; preds = %41
  %47 = load ptr, ptr %5, align 8
  store i32 4, ptr %47, align 4
  store i1 true, ptr %3, align 1
  br label %51

48:                                               ; preds = %41
  br label %49

49:                                               ; preds = %48, %37
  %50 = call zeroext i1 (ptr, ...) @SDL_SetError_REAL(ptr noundef @.str.13)
  store i1 %50, ptr %3, align 1
  br label %51

51:                                               ; preds = %49, %46, %36, %22
  %52 = load i1, ptr %3, align 1
  ret i1 %52
}

; Function Attrs: nounwind uwtable
define hidden zeroext i1 @SDL_ConvertPixels_RGB_to_YUV(i32 noundef %0, i32 noundef %1, i32 noundef %2, i32 noundef %3, i32 noundef %4, ptr noundef %5, i32 noundef %6, i32 noundef %7, i32 noundef %8, i32 noundef %9, ptr noundef %10, i32 noundef %11) #0 {
  %13 = alloca i1, align 1
  %14 = alloca i32, align 4
  %15 = alloca i32, align 4
  %16 = alloca i32, align 4
  %17 = alloca i32, align 4
  %18 = alloca i32, align 4
  %19 = alloca ptr, align 8
  %20 = alloca i32, align 4
  %21 = alloca i32, align 4
  %22 = alloca i32, align 4
  %23 = alloca i32, align 4
  %24 = alloca ptr, align 8
  %25 = alloca i32, align 4
  %26 = alloca i32, align 4
  %27 = alloca i32, align 4
  %28 = alloca i8, align 1
  %29 = alloca ptr, align 8
  %30 = alloca i32, align 4
  %31 = alloca i8, align 1
  %32 = alloca ptr, align 8
  %33 = alloca i32, align 4
  store i32 %0, ptr %14, align 4
  store i32 %1, ptr %15, align 4
  store i32 %2, ptr %16, align 4
  store i32 %3, ptr %17, align 4
  store i32 %4, ptr %18, align 4
  store ptr %5, ptr %19, align 8
  store i32 %6, ptr %20, align 4
  store i32 %7, ptr %21, align 4
  store i32 %8, ptr %22, align 4
  store i32 %9, ptr %23, align 4
  store ptr %10, ptr %24, align 8
  store i32 %11, ptr %25, align 4
  call void @llvm.lifetime.start.p0(i64 4, ptr %26) #7
  store i32 1, ptr %26, align 4
  %34 = load i32, ptr %22, align 4
  %35 = call zeroext i1 @GetYUVConversionType(i32 noundef %34, ptr noundef %26)
  br i1 %35, label %37, label %36

36:                                               ; preds = %12
  store i1 false, ptr %13, align 1
  store i32 1, ptr %27, align 4
  br label %177

37:                                               ; preds = %12
  %38 = load i32, ptr %16, align 4
  %39 = icmp eq i32 %38, 372645892
  br i1 %39, label %43, label %40

40:                                               ; preds = %37
  %41 = load i32, ptr %16, align 4
  %42 = icmp eq i32 %41, 370546692
  br i1 %42, label %43, label %61

43:                                               ; preds = %40, %37
  %44 = load i32, ptr %17, align 4
  %45 = lshr i32 %44, 10
  %46 = and i32 %45, 31
  %47 = load i32, ptr %22, align 4
  %48 = lshr i32 %47, 10
  %49 = and i32 %48, 31
  %50 = icmp eq i32 %46, %49
  br i1 %50, label %51, label %61

51:                                               ; preds = %43
  %52 = load i32, ptr %14, align 4
  %53 = load i32, ptr %15, align 4
  %54 = load ptr, ptr %19, align 8
  %55 = load i32, ptr %20, align 4
  %56 = load i32, ptr %21, align 4
  %57 = load ptr, ptr %24, align 8
  %58 = load i32, ptr %25, align 4
  %59 = load i32, ptr %26, align 4
  %60 = call zeroext i1 @SDL_ConvertPixels_XRGB8888_to_YUV(i32 noundef %52, i32 noundef %53, ptr noundef %54, i32 noundef %55, i32 noundef %56, ptr noundef %57, i32 noundef %58, i32 noundef %59)
  store i1 %60, ptr %13, align 1
  store i32 1, ptr %27, align 4
  br label %177

61:                                               ; preds = %43, %40
  %62 = load i32, ptr %21, align 4
  %63 = icmp eq i32 %62, 808530000
  br i1 %63, label %64, label %132

64:                                               ; preds = %61
  %65 = load i32, ptr %16, align 4
  %66 = icmp eq i32 %65, 374808580
  br i1 %66, label %67, label %85

67:                                               ; preds = %64
  %68 = load i32, ptr %17, align 4
  %69 = lshr i32 %68, 10
  %70 = and i32 %69, 31
  %71 = load i32, ptr %22, align 4
  %72 = lshr i32 %71, 10
  %73 = and i32 %72, 31
  %74 = icmp eq i32 %70, %73
  br i1 %74, label %75, label %85

75:                                               ; preds = %67
  %76 = load i32, ptr %14, align 4
  %77 = load i32, ptr %15, align 4
  %78 = load ptr, ptr %19, align 8
  %79 = load i32, ptr %20, align 4
  %80 = load i32, ptr %21, align 4
  %81 = load ptr, ptr %24, align 8
  %82 = load i32, ptr %25, align 4
  %83 = load i32, ptr %26, align 4
  %84 = call zeroext i1 @SDL_ConvertPixels_XBGR2101010_to_P010(i32 noundef %76, i32 noundef %77, ptr noundef %78, i32 noundef %79, i32 noundef %80, ptr noundef %81, i32 noundef %82, i32 noundef %83)
  store i1 %84, ptr %13, align 1
  store i32 1, ptr %27, align 4
  br label %177

85:                                               ; preds = %67, %64
  call void @llvm.lifetime.start.p0(i64 1, ptr %28) #7
  call void @llvm.lifetime.start.p0(i64 8, ptr %29) #7
  call void @llvm.lifetime.start.p0(i64 4, ptr %30) #7
  %86 = load i32, ptr %14, align 4
  %87 = sext i32 %86 to i64
  %88 = mul i64 %87, 4
  %89 = trunc i64 %88 to i32
  store i32 %89, ptr %30, align 4
  %90 = load i32, ptr %30, align 4
  %91 = sext i32 %90 to i64
  %92 = load i32, ptr %15, align 4
  %93 = sext i32 %92 to i64
  %94 = mul i64 %91, %93
  %95 = call noalias ptr @SDL_malloc_REAL(i64 noundef %94)
  store ptr %95, ptr %29, align 8
  %96 = load ptr, ptr %29, align 8
  %97 = icmp ne ptr %96, null
  br i1 %97, label %99, label %98

98:                                               ; preds = %85
  store i1 false, ptr %13, align 1
  store i32 1, ptr %27, align 4
  br label %131

99:                                               ; preds = %85
  %100 = load i32, ptr %14, align 4
  %101 = load i32, ptr %15, align 4
  %102 = load i32, ptr %16, align 4
  %103 = load i32, ptr %17, align 4
  %104 = load i32, ptr %18, align 4
  %105 = load ptr, ptr %19, align 8
  %106 = load i32, ptr %20, align 4
  %107 = load i32, ptr %22, align 4
  %108 = load i32, ptr %23, align 4
  %109 = load ptr, ptr %29, align 8
  %110 = load i32, ptr %30, align 4
  %111 = call zeroext i1 @SDL_ConvertPixelsAndColorspace_REAL(i32 noundef %100, i32 noundef %101, i32 noundef %102, i32 noundef %103, i32 noundef %104, ptr noundef %105, i32 noundef %106, i32 noundef 374808580, i32 noundef %107, i32 noundef %108, ptr noundef %109, i32 noundef %110)
  %112 = zext i1 %111 to i8
  store i8 %112, ptr %28, align 1
  %113 = load i8, ptr %28, align 1, !range !3, !noundef !4
  %114 = trunc i8 %113 to i1
  br i1 %114, label %117, label %115

115:                                              ; preds = %99
  %116 = load ptr, ptr %29, align 8
  call void @SDL_free_REAL(ptr noundef %116)
  store i1 false, ptr %13, align 1
  store i32 1, ptr %27, align 4
  br label %131

117:                                              ; preds = %99
  %118 = load i32, ptr %14, align 4
  %119 = load i32, ptr %15, align 4
  %120 = load ptr, ptr %29, align 8
  %121 = load i32, ptr %30, align 4
  %122 = load i32, ptr %21, align 4
  %123 = load ptr, ptr %24, align 8
  %124 = load i32, ptr %25, align 4
  %125 = load i32, ptr %26, align 4
  %126 = call zeroext i1 @SDL_ConvertPixels_XBGR2101010_to_P010(i32 noundef %118, i32 noundef %119, ptr noundef %120, i32 noundef %121, i32 noundef %122, ptr noundef %123, i32 noundef %124, i32 noundef %125)
  %127 = zext i1 %126 to i8
  store i8 %127, ptr %28, align 1
  %128 = load ptr, ptr %29, align 8
  call void @SDL_free_REAL(ptr noundef %128)
  %129 = load i8, ptr %28, align 1, !range !3, !noundef !4
  %130 = trunc i8 %129 to i1
  store i1 %130, ptr %13, align 1
  store i32 1, ptr %27, align 4
  br label %131

131:                                              ; preds = %117, %115, %98
  call void @llvm.lifetime.end.p0(i64 4, ptr %30) #7
  call void @llvm.lifetime.end.p0(i64 8, ptr %29) #7
  call void @llvm.lifetime.end.p0(i64 1, ptr %28) #7
  br label %177

132:                                              ; preds = %61
  call void @llvm.lifetime.start.p0(i64 1, ptr %31) #7
  call void @llvm.lifetime.start.p0(i64 8, ptr %32) #7
  call void @llvm.lifetime.start.p0(i64 4, ptr %33) #7
  %133 = load i32, ptr %14, align 4
  %134 = sext i32 %133 to i64
  %135 = mul i64 %134, 4
  %136 = trunc i64 %135 to i32
  store i32 %136, ptr %33, align 4
  %137 = load i32, ptr %33, align 4
  %138 = sext i32 %137 to i64
  %139 = load i32, ptr %15, align 4
  %140 = sext i32 %139 to i64
  %141 = mul i64 %138, %140
  %142 = call noalias ptr @SDL_malloc_REAL(i64 noundef %141)
  store ptr %142, ptr %32, align 8
  %143 = load ptr, ptr %32, align 8
  %144 = icmp ne ptr %143, null
  br i1 %144, label %146, label %145

145:                                              ; preds = %132
  store i1 false, ptr %13, align 1
  store i32 1, ptr %27, align 4
  br label %176

146:                                              ; preds = %132
  %147 = load i32, ptr %14, align 4
  %148 = load i32, ptr %15, align 4
  %149 = load i32, ptr %16, align 4
  %150 = load i32, ptr %17, align 4
  %151 = load i32, ptr %18, align 4
  %152 = load ptr, ptr %19, align 8
  %153 = load i32, ptr %20, align 4
  %154 = load ptr, ptr %32, align 8
  %155 = load i32, ptr %33, align 4
  %156 = call zeroext i1 @SDL_ConvertPixelsAndColorspace_REAL(i32 noundef %147, i32 noundef %148, i32 noundef %149, i32 noundef %150, i32 noundef %151, ptr noundef %152, i32 noundef %153, i32 noundef 370546692, i32 noundef 301991328, i32 noundef 0, ptr noundef %154, i32 noundef %155)
  %157 = zext i1 %156 to i8
  store i8 %157, ptr %31, align 1
  %158 = load i8, ptr %31, align 1, !range !3, !noundef !4
  %159 = trunc i8 %158 to i1
  br i1 %159, label %162, label %160

160:                                              ; preds = %146
  %161 = load ptr, ptr %32, align 8
  call void @SDL_free_REAL(ptr noundef %161)
  store i1 false, ptr %13, align 1
  store i32 1, ptr %27, align 4
  br label %176

162:                                              ; preds = %146
  %163 = load i32, ptr %14, align 4
  %164 = load i32, ptr %15, align 4
  %165 = load ptr, ptr %32, align 8
  %166 = load i32, ptr %33, align 4
  %167 = load i32, ptr %21, align 4
  %168 = load ptr, ptr %24, align 8
  %169 = load i32, ptr %25, align 4
  %170 = load i32, ptr %26, align 4
  %171 = call zeroext i1 @SDL_ConvertPixels_XRGB8888_to_YUV(i32 noundef %163, i32 noundef %164, ptr noundef %165, i32 noundef %166, i32 noundef %167, ptr noundef %168, i32 noundef %169, i32 noundef %170)
  %172 = zext i1 %171 to i8
  store i8 %172, ptr %31, align 1
  %173 = load ptr, ptr %32, align 8
  call void @SDL_free_REAL(ptr noundef %173)
  %174 = load i8, ptr %31, align 1, !range !3, !noundef !4
  %175 = trunc i8 %174 to i1
  store i1 %175, ptr %13, align 1
  store i32 1, ptr %27, align 4
  br label %176

176:                                              ; preds = %162, %160, %145
  call void @llvm.lifetime.end.p0(i64 4, ptr %33) #7
  call void @llvm.lifetime.end.p0(i64 8, ptr %32) #7
  call void @llvm.lifetime.end.p0(i64 1, ptr %31) #7
  br label %177

177:                                              ; preds = %176, %131, %75, %51, %36
  call void @llvm.lifetime.end.p0(i64 4, ptr %26) #7
  %178 = load i1, ptr %13, align 1
  ret i1 %178
}