; Function Attrs: nounwind uwtable
define hidden zeroext i1 @SDL_ConvertPixels_RGB_to_YUV(i32 noundef %0, i32 noundef %1, i32 noundef %2, i32 noundef %3, i32 noundef %4, ptr noundef %5, i32 noundef %6, i32 noundef %7, i32 noundef %8, i32 noundef %9, ptr noundef %10, i32 noundef %11) local_unnamed_addr #0 {
  %13 = and i32 %8, 31
  switch i32 %13, label %GetYUVConversionType.exit [
    i32 6, label %14
    i32 5, label %14
    i32 1, label %16
    i32 9, label %18
  ]

14:                                               ; preds = %12, %12
  %15 = and i32 %8, 251658240
  %.not13.i = icmp ne i32 %15, 33554432
  %..i = zext i1 %.not13.i to i32
  br label %GetYUVConversionType.exit.thread

16:                                               ; preds = %12
  %17 = and i32 %8, 251658240
  %.not.i = icmp eq i32 %17, 33554432
  %.15.i = select i1 %.not.i, i32 2, i32 3
  br label %GetYUVConversionType.exit.thread

18:                                               ; preds = %12
  %19 = and i32 %8, 251658240
  %20 = icmp eq i32 %19, 33554432
  br i1 %20, label %GetYUVConversionType.exit.thread, label %GetYUVConversionType.exit

GetYUVConversionType.exit:                        ; preds = %12, %18
  %21 = tail call zeroext i1 (ptr, ...) @SDL_SetError_REAL(ptr noundef nonnull @.str.13) #7
  br i1 %21, label %GetYUVConversionType.exit.thread, label %60

GetYUVConversionType.exit.thread:                 ; preds = %18, %16, %14, %GetYUVConversionType.exit
  %.08285 = phi i32 [ 1, %GetYUVConversionType.exit ], [ 4, %18 ], [ %..i, %14 ], [ %.15.i, %16 ]
  switch i32 %2, label %28 [
    i32 372645892, label %22
    i32 370546692, label %22
  ]

22:                                               ; preds = %GetYUVConversionType.exit.thread, %GetYUVConversionType.exit.thread
  %23 = xor i32 %8, %3
  %24 = and i32 %23, 31744
  %25 = icmp eq i32 %24, 0
  br i1 %25, label %26, label %28

26:                                               ; preds = %22
  %27 = tail call fastcc zeroext i1 @SDL_ConvertPixels_XRGB8888_to_YUV(i32 noundef %0, i32 noundef %1, ptr noundef %5, i32 noundef %6, i32 noundef %7, ptr noundef %10, i32 noundef %11, i32 noundef %.08285)
  br label %60

28:                                               ; preds = %GetYUVConversionType.exit.thread, %22
  %29 = icmp eq i32 %7, 808530000
  br i1 %29, label %30, label %49

30:                                               ; preds = %28
  %31 = icmp eq i32 %2, 374808580
  br i1 %31, label %32, label %38

32:                                               ; preds = %30
  %33 = xor i32 %8, %3
  %34 = and i32 %33, 31744
  %35 = icmp eq i32 %34, 0
  br i1 %35, label %36, label %38

36:                                               ; preds = %32
  %37 = tail call fastcc zeroext i1 @SDL_ConvertPixels_XBGR2101010_to_P010(i32 noundef %0, i32 noundef %1, ptr noundef %5, i32 noundef %6, ptr noundef %10, i32 noundef %11, i32 noundef %.08285)
  br label %60

38:                                               ; preds = %32, %30
  %39 = shl i32 %0, 2
  %40 = sext i32 %39 to i64
  %41 = sext i32 %1 to i64
  %42 = mul nsw i64 %40, %41
  %43 = tail call noalias ptr @SDL_malloc_REAL(i64 noundef %42) #7
  %.not78 = icmp eq ptr %43, null
  br i1 %.not78, label %60, label %44

44:                                               ; preds = %38
  %45 = tail call zeroext i1 @SDL_ConvertPixelsAndColorspace_REAL(i32 noundef %0, i32 noundef %1, i32 noundef %2, i32 noundef %3, i32 noundef %4, ptr noundef %5, i32 noundef %6, i32 noundef 374808580, i32 noundef %8, i32 noundef %9, ptr noundef nonnull %43, i32 noundef %39) #7
  br i1 %45, label %47, label %46

46:                                               ; preds = %44
  tail call void @SDL_free_REAL(ptr noundef nonnull %43) #7
  br label %60

47:                                               ; preds = %44
  %48 = tail call fastcc zeroext i1 @SDL_ConvertPixels_XBGR2101010_to_P010(i32 noundef %0, i32 noundef %1, ptr noundef nonnull %43, i32 noundef %39, ptr noundef %10, i32 noundef %11, i32 noundef %.08285)
  tail call void @SDL_free_REAL(ptr noundef nonnull %43) #7
  br label %60

49:                                               ; preds = %28
  %50 = shl i32 %0, 2
  %51 = sext i32 %50 to i64
  %52 = sext i32 %1 to i64
  %53 = mul nsw i64 %51, %52
  %54 = tail call noalias ptr @SDL_malloc_REAL(i64 noundef %53) #7
  %.not = icmp eq ptr %54, null
  br i1 %.not, label %60, label %55

55:                                               ; preds = %49
  %56 = tail call zeroext i1 @SDL_ConvertPixelsAndColorspace_REAL(i32 noundef %0, i32 noundef %1, i32 noundef %2, i32 noundef %3, i32 noundef %4, ptr noundef %5, i32 noundef %6, i32 noundef 370546692, i32 noundef 301991328, i32 noundef 0, ptr noundef nonnull %54, i32 noundef %50) #7
  br i1 %56, label %58, label %57

57:                                               ; preds = %55
  tail call void @SDL_free_REAL(ptr noundef nonnull %54) #7
  br label %60

58:                                               ; preds = %55
  %59 = tail call fastcc zeroext i1 @SDL_ConvertPixels_XRGB8888_to_YUV(i32 noundef %0, i32 noundef %1, ptr noundef nonnull %54, i32 noundef %50, i32 noundef %7, ptr noundef %10, i32 noundef %11, i32 noundef %.08285)
  tail call void @SDL_free_REAL(ptr noundef nonnull %54) #7
  br label %60

60:                                               ; preds = %57, %58, %49, %46, %47, %38, %GetYUVConversionType.exit, %36, %26
  %.0 = phi i1 [ %27, %26 ], [ %37, %36 ], [ false, %GetYUVConversionType.exit ], [ %48, %47 ], [ false, %46 ], [ false, %38 ], [ %59, %58 ], [ false, %57 ], [ false, %49 ]
  ret i1 %.0
}